target datalayout = "e-m:e-p270:32:32-p271:32:32-p272:64:64-i64:64-i128:128-f80:128-n8:16:32:64-S128"
target triple = "x86_64-pc-linux-gnu"

%"class.algebraic_numbers::manager" = type <{ ptr, ptr, i8, [7 x i8] }>
%"struct.algebraic_numbers::manager::imp" = type { ptr, ptr, ptr, ptr, %class.mpbq_manager, %class.mpbqi_manager, %"class.polynomial::manager", %"class.upolynomial::manager", %class.mpq, %class._scoped_numeral, %"class.upolynomial::scoped_numeral_vector", %"class.upolynomial::scoped_numeral_vector", %"class.upolynomial::scoped_numeral_vector", %"class.upolynomial::scoped_numeral_vector", %"class.upolynomial::core_manager::factors", %class._scoped_numeral_vector.3, %class._scoped_numeral_vector.3, %class._scoped_numeral_vector.3, %"class.upolynomial::scoped_numeral_vector", i32, i32, i32, i8, %"struct.polynomial::factor_params", i32, i32, i32, i32, i32, %class.svector.1, %class.svector.1 }
%class.mpbq_manager = type { ptr, %class.mpz, %class.mpz, %class.mpbq, %class.mpz, %class.mpz, %class.mpz, %class.mpbq, %class.mpbq, %class.mpz, %class.mpz, %class.mpz }
%class.mpbq = type <{ %class.mpz, i32, [4 x i8] }>
%class.mpz = type { i32, i8, ptr }
%class.mpbqi_manager = type { %class.basic_interval_manager }
%class.basic_interval_manager = type { ptr, %class.mpbq, %class.mpbq, %class.mpbq }
%"class.polynomial::manager" = type { ptr }
%"class.upolynomial::manager" = type { %"class.upolynomial::core_manager", %class.svector, %class.svector, %class.svector, %class.svector, %class.svector }
%"class.upolynomial::core_manager" = type { ptr, %class.mpzzp_manager, %class.svector, %class.svector, %class.svector, %class.svector, %class.svector, %class.svector, %class.svector, [6 x %class.svector], %class.svector, %class.svector, %class.svector }
%class.mpzzp_manager = type { ptr, i8, %class.mpz, %class.mpz, %class.mpz, i8, %class.mpz, %class.mpz, %class.mpz, %class.mpz }
%class.svector = type { %class.vector }
%class.vector = type { ptr }
%class.mpq = type { %class.mpz, %class.mpz }
%class._scoped_numeral = type { ptr, %class.mpz }
%"class.upolynomial::core_manager::factors" = type { %class.vector.0, %class.svector.1, ptr, %class.mpz, i32, i32 }
%class.vector.0 = type { ptr }
%class._scoped_numeral_vector.3 = type { %class.svector.4, ptr }
%class.svector.4 = type { %class.vector.5 }
%class.vector.5 = type { ptr }
%"class.upolynomial::scoped_numeral_vector" = type { %class._scoped_numeral_vector }
%class._scoped_numeral_vector = type { %class.svector, ptr }
%"struct.polynomial::factor_params" = type { i32, i32, i32 }
%class.svector.1 = type { %class.vector.2 }
%class.vector.2 = type { ptr }
%"struct.algebraic_numbers::algebraic_cell" = type <{ i32, [4 x i8], ptr, %"class.basic_interval_manager<mpbq_manager, false>::interval", i32, [4 x i8] }>
%"class.basic_interval_manager<mpbq_manager, false>::interval" = type { %class.mpbq, %class.mpbq }
%"class.algebraic_numbers::anum" = type { ptr }
%"struct.algebraic_numbers::basic_cell" = type { %class.mpq }

; Function Attrs: mustprogress nounwind uwtable
define linkonce_odr hidden noundef zeroext i1 @_ZN11mpz_managerILb0EE6is_negERK3mpz(ptr noundef nonnull align 8 dereferenceable(16) %0) #5 comdat align 2 {
  %2 = alloca ptr, align 8
  store ptr %0, ptr %2, align 8, !tbaa !73
  %3 = load ptr, ptr %2, align 8, !tbaa !73
  %4 = call noundef i32 @_ZN11mpz_managerILb0EE4signERK3mpz(ptr noundef nonnull align 8 dereferenceable(16) %3)
  %5 = icmp slt i32 %4, 0
  ret i1 %5
}

; Function Attrs: mustprogress nounwind uwtable
define linkonce_odr hidden noundef i32 @_ZN11mpz_managerILb0EE4signERK3mpz(ptr noundef nonnull align 8 dereferenceable(16) %0) #5 comdat align 2 {
  %2 = alloca ptr, align 8
  store ptr %0, ptr %2, align 8, !tbaa !73
  %3 = load ptr, ptr %2, align 8, !tbaa !73
  %4 = getelementptr inbounds nuw %class.mpz, ptr %3, i32 0, i32 0
  %5 = load i32, ptr %4, align 8, !tbaa !168
  ret i32 %5
}

; Function Attrs: mustprogress uwtable
define linkonce_odr hidden noundef zeroext i1 @_ZN11mpz_managerILb0EE9is_nonnegERK3mpz(ptr noundef nonnull align 8 dereferenceable(16) %0) #4 comdat align 2 {
  %2 = alloca ptr, align 8
  store ptr %0, ptr %2, align 8, !tbaa !73
  %3 = load ptr, ptr %2, align 8, !tbaa !73
  %4 = call noundef zeroext i1 @_ZN11mpz_managerILb0EE6is_negERK3mpz(ptr noundef nonnull align 8 dereferenceable(16) %3)
  %5 = xor i1 %4, true
  ret i1 %5
}

; Function Attrs: mustprogress uwtable
define linkonce_odr hidden noundef zeroext i1 @_ZN11mpz_managerILb0EE6is_posERK3mpz(ptr noundef nonnull align 8 dereferenceable(16) %0) #4 comdat align 2 {
  %2 = alloca ptr, align 8
  store ptr %0, ptr %2, align 8, !tbaa !73
  %3 = load ptr, ptr %2, align 8, !tbaa !73
  %4 = call noundef i32 @_ZN11mpz_managerILb0EE4signERK3mpz(ptr noundef nonnull align 8 dereferenceable(16) %3)
  %5 = icmp sgt i32 %4, 0
  ret i1 %5
}

; Function Attrs: mustprogress nounwind uwtable
define linkonce_odr hidden noundef zeroext i1 @_ZNK17algebraic_numbers4anum7is_nullEv(ptr noundef nonnull align 8 dereferenceable(8) %0) #5 comdat align 2 {
  %2 = alloca ptr, align 8
  store ptr %0, ptr %2, align 8, !tbaa !65
  %3 = load ptr, ptr %2, align 8
  %4 = getelementptr inbounds nuw %"class.algebraic_numbers::anum", ptr %3, i32 0, i32 0
  %5 = load ptr, ptr %4, align 8, !tbaa !124
  %6 = icmp eq ptr %5, null
  ret i1 %6
}

; Function Attrs: mustprogress uwtable
define linkonce_odr hidden noundef zeroext i1 @_ZNK12mpbq_manager9is_nonnegERK4mpbq(ptr noundef nonnull align 8 dereferenceable(208) %0, ptr noundef nonnull align 8 dereferenceable(20) %1) #4 comdat align 2 {
  %3 = alloca ptr, align 8
  %4 = alloca ptr, align 8
  store ptr %0, ptr %3, align 8, !tbaa !121
  store ptr %1, ptr %4, align 8, !tbaa !120
  %5 = load ptr, ptr %4, align 8, !tbaa !120
  %6 = getelementptr inbounds nuw %class.mpbq, ptr %5, i32 0, i32 0
  %7 = call noundef zeroext i1 @_ZN11mpz_managerILb0EE9is_nonnegERK3mpz(ptr noundef nonnull align 8 dereferenceable(16) %6)
  ret i1 %7
}

; Function Attrs: mustprogress nounwind uwtable
define linkonce_odr hidden noundef nonnull align 8 dereferenceable(208) ptr @_ZNK22basic_interval_managerI12mpbq_managerLb0EE1mEv(ptr noundef nonnull align 8 dereferenceable(80) %0) #5 comdat align 2 {
  %2 = alloca ptr, align 8
  store ptr %0, ptr %2, align 8, !tbaa !166
  %3 = load ptr, ptr %2, align 8
  %4 = getelementptr inbounds nuw %class.basic_interval_manager, ptr %3, i32 0, i32 0
  %5 = load ptr, ptr %4, align 8, !tbaa !191
  ret ptr %5
}

; Function Attrs: mustprogress uwtable
define linkonce_odr hidden noundef zeroext i1 @_ZN11mpq_managerILb0EE6is_posERK3mpz(ptr noundef nonnull align 8 dereferenceable(16) %0) #4 comdat align 2 {
  %2 = alloca ptr, align 8
  store ptr %0, ptr %2, align 8, !tbaa !73
  %3 = load ptr, ptr %2, align 8, !tbaa !73
  %4 = call noundef zeroext i1 @_ZN11mpz_managerILb0EE6is_posERK3mpz(ptr noundef nonnull align 8 dereferenceable(16) %3)
  ret i1 %4
}

; Function Attrs: mustprogress nounwind uwtable
define linkonce_odr hidden noundef ptr @_ZNK17algebraic_numbers4anum8to_basicEv(ptr noundef nonnull align 8 dereferenceable(8) %0) #5 comdat align 2 {
  %2 = alloca ptr, align 8
  store ptr %0, ptr %2, align 8, !tbaa !65
  %3 = load ptr, ptr %2, align 8
  %4 = getelementptr inbounds nuw %"class.algebraic_numbers::anum", ptr %3, i32 0, i32 0
  %5 = load ptr, ptr %4, align 8, !tbaa !124
  %6 = ptrtoint ptr %5 to i64
  %7 = and i64 %6, -8
  %8 = inttoptr i64 %7 to ptr
  ret ptr %8
}

; Function Attrs: mustprogress nounwind uwtable
define linkonce_odr hidden noundef zeroext i1 @_ZN17algebraic_numbers7manager3imp7is_zeroERKNS_4anumE(ptr noundef nonnull align 8 dereferenceable(936) %0, ptr noundef nonnull align 8 dereferenceable(8) %1) #5 comdat align 2 {
  %3 = alloca ptr, align 8
  %4 = alloca ptr, align 8
  store ptr %0, ptr %3, align 8, !tbaa !24
  store ptr %1, ptr %4, align 8, !tbaa !65
  %5 = load ptr, ptr %4, align 8, !tbaa !65
  %6 = call noundef zeroext i1 @_ZNK17algebraic_numbers4anum7is_nullEv(ptr noundef nonnull align 8 dereferenceable(8) %5)
  ret i1 %6
}

; Function Attrs: mustprogress uwtable
define linkonce_odr hidden noundef zeroext i1 @_ZN22basic_interval_managerI12mpbq_managerLb0EE6is_posERKNS1_8intervalE(ptr noundef nonnull align 8 dereferenceable(80) %0, ptr noundef nonnull align 8 dereferenceable(48) %1) #4 comdat align 2 {
  %3 = alloca ptr, align 8
  %4 = alloca ptr, align 8
  store ptr %0, ptr %3, align 8, !tbaa !166
  store ptr %1, ptr %4, align 8, !tbaa !125
  %5 = load ptr, ptr %3, align 8
  %6 = call noundef nonnull align 8 dereferenceable(208) ptr @_ZNK22basic_interval_managerI12mpbq_managerLb0EE1mEv(ptr noundef nonnull align 8 dereferenceable(80) %5)
  %7 = load ptr, ptr %4, align 8, !tbaa !125
  %8 = getelementptr inbounds nuw %"class.basic_interval_manager<mpbq_manager, false>::interval", ptr %7, i32 0, i32 0
  %9 = call noundef zeroext i1 @_ZNK12mpbq_manager9is_nonnegERK4mpbq(ptr noundef nonnull align 8 dereferenceable(208) %6, ptr noundef nonnull align 8 dereferenceable(20) %8)
  ret i1 %9
}

; Function Attrs: mustprogress nounwind uwtable
define linkonce_odr hidden noundef ptr @_ZNK17algebraic_numbers4anum12to_algebraicEv(ptr noundef nonnull align 8 dereferenceable(8) %0) #5 comdat align 2 {
  %2 = alloca ptr, align 8
  store ptr %0, ptr %2, align 8, !tbaa !65
  %3 = load ptr, ptr %2, align 8
  %4 = getelementptr inbounds nuw %"class.algebraic_numbers::anum", ptr %3, i32 0, i32 0
  %5 = load ptr, ptr %4, align 8, !tbaa !124
  %6 = ptrtoint ptr %5 to i64
  %7 = and i64 %6, -8
  %8 = inttoptr i64 %7 to ptr
  ret ptr %8
}

; Function Attrs: mustprogress nounwind uwtable
define linkonce_odr hidden noundef nonnull align 8 dereferenceable(80) ptr @_ZN17algebraic_numbers7manager3imp4bqimEv(ptr noundef nonnull align 8 dereferenceable(936) %0) #5 comdat align 2 {
  %2 = alloca ptr, align 8
  store ptr %0, ptr %2, align 8, !tbaa !24
  %3 = load ptr, ptr %2, align 8
  %4 = getelementptr inbounds nuw %"struct.algebraic_numbers::manager::imp", ptr %3, i32 0, i32 5
  ret ptr %4
}

; Function Attrs: mustprogress uwtable
define linkonce_odr hidden noundef zeroext i1 @_ZN11mpq_managerILb0EE6is_posERK3mpq(ptr noundef nonnull align 8 dereferenceable(32) %0) #4 comdat align 2 {
  %2 = alloca ptr, align 8
  store ptr %0, ptr %2, align 8, !tbaa !78
  %3 = load ptr, ptr %2, align 8, !tbaa !78
  %4 = getelementptr inbounds nuw %class.mpq, ptr %3, i32 0, i32 0
  %5 = call noundef zeroext i1 @_ZN11mpq_managerILb0EE6is_posERK3mpz(ptr noundef nonnull align 8 dereferenceable(16) %4)
  ret i1 %5
}

; Function Attrs: mustprogress nounwind uwtable
define linkonce_odr hidden noundef nonnull align 8 dereferenceable(32) ptr @_ZN17algebraic_numbers7manager3imp11basic_valueERKNS_4anumE(ptr noundef nonnull align 8 dereferenceable(936) %0, ptr noundef nonnull align 8 dereferenceable(8) %1) #5 comdat align 2 {
  %3 = alloca ptr, align 8
  %4 = alloca ptr, align 8
  %5 = alloca ptr, align 8
  store ptr %0, ptr %4, align 8, !tbaa !24
  store ptr %1, ptr %5, align 8, !tbaa !65
  %6 = load ptr, ptr %4, align 8
  %7 = load ptr, ptr %5, align 8, !tbaa !65
  %8 = call noundef zeroext i1 @_ZN17algebraic_numbers7manager3imp7is_zeroERKNS_4anumE(ptr noundef nonnull align 8 dereferenceable(936) %6, ptr noundef nonnull align 8 dereferenceable(8) %7)
  br i1 %8, label %9, label %11

9:                                                ; preds = %2
  %10 = getelementptr inbounds nuw %"struct.algebraic_numbers::manager::imp", ptr %6, i32 0, i32 8
  store ptr %10, ptr %3, align 8
  br label %15

11:                                               ; preds = %2
  %12 = load ptr, ptr %5, align 8, !tbaa !65
  %13 = call noundef ptr @_ZNK17algebraic_numbers4anum8to_basicEv(ptr noundef nonnull align 8 dereferenceable(8) %12)
  %14 = getelementptr inbounds nuw %"struct.algebraic_numbers::basic_cell", ptr %13, i32 0, i32 0
  store ptr %14, ptr %3, align 8
  br label %15

15:                                               ; preds = %11, %9
  %16 = load ptr, ptr %3, align 8
  ret ptr %16
}

; Function Attrs: mustprogress nounwind uwtable
define linkonce_odr hidden noundef nonnull align 8 dereferenceable(728) ptr @_ZN17algebraic_numbers7manager3imp2qmEv(ptr noundef nonnull align 8 dereferenceable(936) %0) #5 comdat align 2 {
  %2 = alloca ptr, align 8
  store ptr %0, ptr %2, align 8, !tbaa !24
  %3 = load ptr, ptr %2, align 8
  %4 = getelementptr inbounds nuw %"struct.algebraic_numbers::manager::imp", ptr %3, i32 0, i32 3
  %5 = load ptr, ptr %4, align 8, !tbaa !64
  ret ptr %5
}

; Function Attrs: mustprogress nounwind uwtable
define linkonce_odr hidden noundef zeroext i1 @_ZNK17algebraic_numbers4anum8is_basicEv(ptr noundef nonnull align 8 dereferenceable(8) %0) #5 comdat align 2 {
  %2 = alloca ptr, align 8
  store ptr %0, ptr %2, align 8, !tbaa !65
  %3 = load ptr, ptr %2, align 8
  %4 = getelementptr inbounds nuw %"class.algebraic_numbers::anum", ptr %3, i32 0, i32 0
  %5 = load ptr, ptr %4, align 8, !tbaa !124
  %6 = ptrtoint ptr %5 to i64
  %7 = and i64 %6, 7
  %8 = icmp eq i64 %7, 0
  ret i1 %8
}

; Function Attrs: mustprogress uwtable
define linkonce_odr hidden noundef zeroext i1 @_ZN17algebraic_numbers7manager3imp6is_posERKNS_4anumE(ptr noundef nonnull align 8 dereferenceable(936) %0, ptr noundef nonnull align 8 dereferenceable(8) %1) #4 comdat align 2 {
  %3 = alloca i1, align 1
  %4 = alloca ptr, align 8
  %5 = alloca ptr, align 8
  store ptr %0, ptr %4, align 8, !tbaa !24
  store ptr %1, ptr %5, align 8, !tbaa !65
  %6 = load ptr, ptr %4, align 8
  %7 = load ptr, ptr %5, align 8, !tbaa !65
  %8 = call noundef zeroext i1 @_ZNK17algebraic_numbers4anum8is_basicEv(ptr noundef nonnull align 8 dereferenceable(8) %7)
  br i1 %8, label %9, label %14

9:                                                ; preds = %2
  %10 = call noundef nonnull align 8 dereferenceable(728) ptr @_ZN17algebraic_numbers7manager3imp2qmEv(ptr noundef nonnull align 8 dereferenceable(936) %6)
  %11 = load ptr, ptr %5, align 8, !tbaa !65
  %12 = call noundef nonnull align 8 dereferenceable(32) ptr @_ZN17algebraic_numbers7manager3imp11basic_valueERKNS_4anumE(ptr noundef nonnull align 8 dereferenceable(936) %6, ptr noundef nonnull align 8 dereferenceable(8) %11)
  %13 = call noundef zeroext i1 @_ZN11mpq_managerILb0EE6is_posERK3mpq(ptr noundef nonnull align 8 dereferenceable(32) %12)
  store i1 %13, ptr %3, align 1
  br label %20

14:                                               ; preds = %2
  %15 = call noundef nonnull align 8 dereferenceable(80) ptr @_ZN17algebraic_numbers7manager3imp4bqimEv(ptr noundef nonnull align 8 dereferenceable(936) %6)
  %16 = load ptr, ptr %5, align 8, !tbaa !65
  %17 = call noundef ptr @_ZNK17algebraic_numbers4anum12to_algebraicEv(ptr noundef nonnull align 8 dereferenceable(8) %16)
  %18 = getelementptr inbounds nuw %"struct.algebraic_numbers::algebraic_cell", ptr %17, i32 0, i32 3
  %19 = call noundef zeroext i1 @_ZN22basic_interval_managerI12mpbq_managerLb0EE6is_posERKNS1_8intervalE(ptr noundef nonnull align 8 dereferenceable(80) %15, ptr noundef nonnull align 8 dereferenceable(48) %18)
  store i1 %19, ptr %3, align 1
  br label %20

20:                                               ; preds = %14, %9
  %21 = load i1, ptr %3, align 1
  ret i1 %21
}

; Function Attrs: mustprogress uwtable
define hidden noundef zeroext i1 @_ZN17algebraic_numbers7manager6is_posERKNS_4anumE(ptr noundef nonnull align 8 dereferenceable(17) %0, ptr noundef nonnull align 8 dereferenceable(8) %1) #4 align 2 {
  %3 = alloca ptr, align 8
  %4 = alloca ptr, align 8
  store ptr %0, ptr %3, align 8, !tbaa !8
  store ptr %1, ptr %4, align 8, !tbaa !65
  %5 = load ptr, ptr %3, align 8
  %6 = getelementptr inbounds nuw %"class.algebraic_numbers::manager", ptr %5, i32 0, i32 0
  %7 = load ptr, ptr %6, align 8, !tbaa !23
  %8 = load ptr, ptr %4, align 8, !tbaa !65
  %9 = call noundef zeroext i1 @_ZN17algebraic_numbers7manager3imp6is_posERKNS_4anumE(ptr noundef nonnull align 8 dereferenceable(936) %7, ptr noundef nonnull align 8 dereferenceable(8) %8)
  ret i1 %9
}